; Function Attrs: nounwind uwtable
define ptr @l_Array_foldrMUnsafe_fold___at_Lean_Compiler_LCNF_FloatLetIn_initialNewArms___spec__6___boxed(ptr noundef %0, ptr noundef %1, ptr noundef %2, ptr noundef %3, ptr noundef %4, ptr noundef %5, ptr noundef %6, ptr noundef %7, ptr noundef %8) local_unnamed_addr #1 {
  %10 = getelementptr i8, ptr %2, i64 8
  %.val37 = load i64, ptr %10, align 8, !tbaa !12
  %11 = ptrtoint ptr %2 to i64
  %12 = and i64 %11, 1
  %.not = icmp eq i64 %12, 0
  br i1 %.not, label %13, label %lean_dec.exit24

13:                                               ; preds = %9
  %14 = load i32, ptr %2, align 4, !tbaa !8
  %15 = icmp sgt i32 %14, 1
  br i1 %15, label %16, label %18, !prof !11

16:                                               ; preds = %13
  %17 = add nsw i32 %14, -1
  store i32 %17, ptr %2, align 4, !tbaa !8
  br label %lean_dec.exit24

18:                                               ; preds = %13
  %.not.i = icmp eq i32 %14, 0
  br i1 %.not.i, label %lean_dec.exit24, label %19

19:                                               ; preds = %18
  tail call void @lean_dec_ref_cold(ptr noundef nonnull %2) #4
  br label %lean_dec.exit24

lean_dec.exit24:                                  ; preds = %19, %18, %16, %9
  %20 = getelementptr i8, ptr %3, i64 8
  %.val38 = load i64, ptr %20, align 8, !tbaa !12
  %21 = ptrtoint ptr %3 to i64
  %22 = and i64 %21, 1
  %.not39 = icmp eq i64 %22, 0
  br i1 %.not39, label %23, label %lean_dec.exit23

23:                                               ; preds = %lean_dec.exit24
  %24 = load i32, ptr %3, align 4, !tbaa !8
  %25 = icmp sgt i32 %24, 1
  br i1 %25, label %26, label %28, !prof !11

26:                                               ; preds = %23
  %27 = add nsw i32 %24, -1
  store i32 %27, ptr %3, align 4, !tbaa !8
  br label %lean_dec.exit23

28:                                               ; preds = %23
  %.not.i25 = icmp eq i32 %24, 0
  br i1 %.not.i25, label %lean_dec.exit23, label %29

29:                                               ; preds = %28
  tail call void @lean_dec_ref_cold(ptr noundef nonnull %3) #4
  br label %lean_dec.exit23

lean_dec.exit23:                                  ; preds = %29, %28, %26, %lean_dec.exit24
  %30 = getelementptr i8, ptr %4, i64 8
  %.val36 = load i64, ptr %30, align 8, !tbaa !12
  %31 = ptrtoint ptr %4 to i64
  %32 = and i64 %31, 1
  %.not40 = icmp eq i64 %32, 0
  br i1 %.not40, label %33, label %lean_dec.exit22

33:                                               ; preds = %lean_dec.exit23
  %34 = load i32, ptr %4, align 4, !tbaa !8
  %35 = icmp sgt i32 %34, 1
  br i1 %35, label %36, label %38, !prof !11

36:                                               ; preds = %33
  %37 = add nsw i32 %34, -1
  store i32 %37, ptr %4, align 4, !tbaa !8
  br label %lean_dec.exit22

38:                                               ; preds = %33
  %.not.i27 = icmp eq i32 %34, 0
  br i1 %.not.i27, label %lean_dec.exit22, label %39

39:                                               ; preds = %38
  tail call void @lean_dec_ref_cold(ptr noundef nonnull %4) #4
  br label %lean_dec.exit22

lean_dec.exit22:                                  ; preds = %39, %38, %36, %lean_dec.exit23
  %40 = getelementptr i8, ptr %6, i64 8
  %.val35 = load i64, ptr %40, align 8, !tbaa !12
  %41 = ptrtoint ptr %6 to i64
  %42 = and i64 %41, 1
  %.not41 = icmp eq i64 %42, 0
  br i1 %.not41, label %43, label %lean_dec.exit21

43:                                               ; preds = %lean_dec.exit22
  %44 = load i32, ptr %6, align 4, !tbaa !8
  %45 = icmp sgt i32 %44, 1
  br i1 %45, label %46, label %48, !prof !11

46:                                               ; preds = %43
  %47 = add nsw i32 %44, -1
  store i32 %47, ptr %6, align 4, !tbaa !8
  br label %lean_dec.exit21

48:                                               ; preds = %43
  %.not.i29 = icmp eq i32 %44, 0
  br i1 %.not.i29, label %lean_dec.exit21, label %49

49:                                               ; preds = %48
  tail call void @lean_dec_ref_cold(ptr noundef nonnull %6) #4
  br label %lean_dec.exit21

lean_dec.exit21:                                  ; preds = %49, %48, %46, %lean_dec.exit22
  %50 = getelementptr i8, ptr %7, i64 8
  %.val = load i64, ptr %50, align 8, !tbaa !12
  %51 = ptrtoint ptr %7 to i64
  %52 = and i64 %51, 1
  %.not42 = icmp eq i64 %52, 0
  br i1 %.not42, label %53, label %lean_dec.exit20

53:                                               ; preds = %lean_dec.exit21
  %54 = load i32, ptr %7, align 4, !tbaa !8
  %55 = icmp sgt i32 %54, 1
  br i1 %55, label %56, label %58, !prof !11

56:                                               ; preds = %53
  %57 = add nsw i32 %54, -1
  store i32 %57, ptr %7, align 4, !tbaa !8
  br label %lean_dec.exit20

58:                                               ; preds = %53
  %.not.i31 = icmp eq i32 %54, 0
  br i1 %.not.i31, label %lean_dec.exit20, label %59

59:                                               ; preds = %58
  tail call void @lean_dec_ref_cold(ptr noundef nonnull %7) #4
  br label %lean_dec.exit20

lean_dec.exit20:                                  ; preds = %59, %58, %56, %lean_dec.exit21
  %60 = tail call ptr @l_Array_foldrMUnsafe_fold___at_Lean_Compiler_LCNF_FloatLetIn_initialNewArms___spec__6(ptr noundef %0, ptr noundef %1, i64 noundef %.val37, i64 noundef %.val38, i64 noundef %.val36, ptr noundef %5, i64 noundef %.val35, i64 noundef %.val, ptr noundef %8)
  %61 = ptrtoint ptr %5 to i64
  %62 = and i64 %61, 1
  %.not43 = icmp eq i64 %62, 0
  br i1 %.not43, label %63, label %lean_dec.exit

63:                                               ; preds = %lean_dec.exit20
  %64 = load i32, ptr %5, align 4, !tbaa !8
  %65 = icmp sgt i32 %64, 1
  br i1 %65, label %66, label %68, !prof !11

66:                                               ; preds = %63
  %67 = add nsw i32 %64, -1
  store i32 %67, ptr %5, align 4, !tbaa !8
  br label %lean_dec.exit

68:                                               ; preds = %63
  %.not.i33 = icmp eq i32 %64, 0
  br i1 %.not.i33, label %lean_dec.exit, label %69

69:                                               ; preds = %68
  tail call void @lean_dec_ref_cold(ptr noundef nonnull %5) #4
  br label %lean_dec.exit

lean_dec.exit:                                    ; preds = %69, %68, %66, %lean_dec.exit20
  ret ptr %60
}